; Function Attrs: nounwind uwtable
define hidden zeroext i1 @Wayland_GLES_DestroyContext(ptr noundef %0, ptr noundef %1) local_unnamed_addr #0 {
  %3 = tail call zeroext i1 @SDL_EGL_DestroyContext(ptr noundef %0, ptr noundef %1) #4
  %4 = load ptr, ptr @WAYLAND_wl_display_flush, align 8
  %5 = getelementptr inbounds nuw i8, ptr %0, i64 1656
  %6 = load ptr, ptr %5, align 8
  %7 = getelementptr inbounds nuw i8, ptr %6, i64 8
  %8 = load ptr, ptr %7, align 8
  %9 = tail call i32 %4(ptr noundef %8) #4
  ret i1 %3
}